; ModuleID = '31/767.c'
source_filename = "31/767.c"
target datalayout = "e-m:e-p270:32:32-p271:32:32-p272:64:64-i64:64-f80:128-n8:16:32:64-S128"
target triple = "x86_64-pc-linux-gnu"

%struct.student = type { [100 x i8], %struct.student*, %struct.student* }

@.str = private unnamed_addr constant [4 x i8] c"end\00", align 1
@.str.1 = private unnamed_addr constant [4 x i8] c"%s\0A\00", align 1

; Function Attrs: noinline nounwind uwtable
define dso_local %struct.student* @create() #0 {
  %1 = alloca %struct.student*, align 8
  %2 = alloca %struct.student*, align 8
  %3 = alloca %struct.student*, align 8
  %4 = alloca %struct.student*, align 8
  %5 = alloca i32, align 4
  %6 = alloca i32, align 4
  store i32 1, i32* %5, align 4
  store i32 0, i32* %6, align 4
  br label %7

7:                                                ; preds = %43, %0
  %8 = call noalias i8* @malloc(i64 100) #4
  %9 = bitcast i8* %8 to %struct.student*
  store %struct.student* %9, %struct.student** %3, align 8
  %10 = load %struct.student*, %struct.student** %3, align 8
  %11 = getelementptr inbounds %struct.student, %struct.student* %10, i32 0, i32 0
  %12 = getelementptr inbounds [100 x i8], [100 x i8]* %11, i64 0, i64 0
  %13 = call i32 (i8*, ...) bitcast (i32 (...)* @gets to i32 (i8*, ...)*)(i8* %12)
  %14 = load %struct.student*, %struct.student** %3, align 8
  %15 = getelementptr inbounds %struct.student, %struct.student* %14, i32 0, i32 0
  %16 = getelementptr inbounds [100 x i8], [100 x i8]* %15, i64 0, i64 0
  %17 = call i32 @strcmp(i8* %16, i8* getelementptr inbounds ([4 x i8], [4 x i8]* @.str, i64 0, i64 0)) #5
  %18 = icmp eq i32 %17, 0
  br i1 %18, label %19, label %24

19:                                               ; preds = %7
  %20 = load i32, i32* %5, align 4
  %21 = icmp eq i32 %20, 1
  br i1 %21, label %22, label %23

22:                                               ; preds = %19
  store i32 1, i32* %6, align 4
  br label %23

23:                                               ; preds = %22, %19
  br label %46

24:                                               ; preds = %7
  %25 = load i32, i32* %5, align 4
  %26 = icmp eq i32 %25, 1
  br i1 %26, label %27, label %34

27:                                               ; preds = %24
  %28 = load %struct.student*, %struct.student** %3, align 8
  store %struct.student* %28, %struct.student** %1, align 8
  %29 = load %struct.student*, %struct.student** %3, align 8
  store %struct.student* %29, %struct.student** %2, align 8
  %30 = load %struct.student*, %struct.student** %3, align 8
  %31 = getelementptr inbounds %struct.student, %struct.student* %30, i32 0, i32 2
  store %struct.student* null, %struct.student** %31, align 8
  %32 = load i32, i32* %5, align 4
  %33 = add nsw i32 %32, 1
  store i32 %33, i32* %5, align 4
  br label %42

34:                                               ; preds = %24
  %35 = load %struct.student*, %struct.student** %3, align 8
  %36 = load %struct.student*, %struct.student** %2, align 8
  %37 = getelementptr inbounds %struct.student, %struct.student* %36, i32 0, i32 1
  store %struct.student* %35, %struct.student** %37, align 8
  %38 = load %struct.student*, %struct.student** %2, align 8
  %39 = load %struct.student*, %struct.student** %3, align 8
  %40 = getelementptr inbounds %struct.student, %struct.student* %39, i32 0, i32 2
  store %struct.student* %38, %struct.student** %40, align 8
  %41 = load %struct.student*, %struct.student** %3, align 8
  store %struct.student* %41, %struct.student** %2, align 8
  br label %42

42:                                               ; preds = %34, %27
  br label %43

43:                                               ; preds = %42
  %44 = load i32, i32* %5, align 4
  %45 = icmp ne i32 %44, 0
  br i1 %45, label %7, label %46

46:                                               ; preds = %43, %23
  %47 = load i32, i32* %6, align 4
  %48 = icmp eq i32 %47, 0
  br i1 %48, label %49, label %53

49:                                               ; preds = %46
  %50 = load %struct.student*, %struct.student** %2, align 8
  %51 = getelementptr inbounds %struct.student, %struct.student* %50, i32 0, i32 1
  store %struct.student* null, %struct.student** %51, align 8
  %52 = load %struct.student*, %struct.student** %2, align 8
  store %struct.student* %52, %struct.student** %4, align 8
  br label %55

53:                                               ; preds = %46
  %54 = load %struct.student*, %struct.student** %3, align 8
  store %struct.student* %54, %struct.student** %1, align 8
  store %struct.student* null, %struct.student** %4, align 8
  br label %55

55:                                               ; preds = %53, %49
  %56 = load %struct.student*, %struct.student** %4, align 8
  ret %struct.student* %56
}

; Function Attrs: nounwind
declare dso_local noalias i8* @malloc(i64) #1

declare dso_local i32 @gets(...) #2

; Function Attrs: nounwind readonly
declare dso_local i32 @strcmp(i8*, i8*) #3

; Function Attrs: noinline nounwind uwtable
define dso_local i32 @main() #0 {
  %1 = alloca i32, align 4
  %2 = alloca %struct.student*, align 8
  %3 = alloca %struct.student*, align 8
  store i32 0, i32* %1, align 4
  %4 = call %struct.student* @create()
  store %struct.student* %4, %struct.student** %2, align 8
  %5 = load %struct.student*, %struct.student** %2, align 8
  store %struct.student* %5, %struct.student** %3, align 8
  br label %6

6:                                                ; preds = %9, %0
  %7 = load %struct.student*, %struct.student** %3, align 8
  %8 = icmp ne %struct.student* %7, null
  br i1 %8, label %9, label %17

9:                                                ; preds = %6
  %10 = load %struct.student*, %struct.student** %3, align 8
  %11 = getelementptr inbounds %struct.student, %struct.student* %10, i32 0, i32 0
  %12 = getelementptr inbounds [100 x i8], [100 x i8]* %11, i64 0, i64 0
  %13 = call i32 (i8*, ...) @printf(i8* getelementptr inbounds ([4 x i8], [4 x i8]* @.str.1, i64 0, i64 0), i8* %12)
  %14 = load %struct.student*, %struct.student** %3, align 8
  %15 = getelementptr inbounds %struct.student, %struct.student* %14, i32 0, i32 2
  %16 = load %struct.student*, %struct.student** %15, align 8
  store %struct.student* %16, %struct.student** %3, align 8
  br label %6

17:                                               ; preds = %6
  ret i32 0
}

declare dso_local i32 @printf(i8*, ...) #2


!llvm.module.flags = !{!0}
!llvm.ident = !{!1}

!0 = !{i32 1, !"wchar_size", i32 4}
!1 = !{!"clang version 10.0.0-4ubuntu1 "}
